; Function Attrs: mustprogress nofree norecurse nosync nounwind willreturn memory(read, inaccessiblemem: none) uwtable
define range(i32 0, 262159) i32 @ucptrie_internalSmallIndex_77(ptr noundef readonly captures(none) %0, i32 noundef %1) local_unnamed_addr #7 {
  %3 = ashr i32 %1, 14
  %4 = getelementptr inbounds nuw i8, ptr %0, i64 30
  %5 = load i8, ptr %4, align 2, !tbaa !25
  %6 = icmp eq i8 %5, 0
  %.025.v = select i1 %6, i32 1020, i32 64
  %.025 = add nsw i32 %.025.v, %3
  %7 = load ptr, ptr %0, align 8, !tbaa !17
  %8 = sext i32 %.025 to i64
  %9 = getelementptr inbounds i16, ptr %7, i64 %8
  %10 = load i16, ptr %9, align 2, !tbaa !22
  %11 = zext i16 %10 to i32
  %12 = lshr i32 %1, 9
  %13 = and i32 %12, 31
  %14 = add nuw nsw i32 %13, %11
  %15 = zext nneg i32 %14 to i64
  %16 = getelementptr inbounds nuw i16, ptr %7, i64 %15
  %17 = load i16, ptr %16, align 2, !tbaa !22
  %18 = zext i16 %17 to i32
  %19 = lshr i32 %1, 4
  %20 = and i32 %19, 31
  %21 = icmp sgt i16 %17, -1
  br i1 %21, label %22, label %28

22:                                               ; preds = %2
  %23 = add nuw nsw i32 %20, %18
  %24 = zext nneg i32 %23 to i64
  %25 = getelementptr inbounds nuw i16, ptr %7, i64 %24
  %26 = load i16, ptr %25, align 2, !tbaa !22
  %27 = zext i16 %26 to i32
  br label %50

28:                                               ; preds = %2
  %29 = and i32 %18, 32767
  %30 = and i32 %19, 24
  %31 = lshr i32 %20, 3
  %32 = or disjoint i32 %31, %30
  %33 = add nuw nsw i32 %32, %29
  %34 = and i32 %19, 7
  %35 = zext nneg i32 %33 to i64
  %36 = getelementptr inbounds nuw i16, ptr %7, i64 %35
  %37 = load i16, ptr %36, align 2, !tbaa !22
  %38 = zext i16 %37 to i32
  %39 = shl nuw nsw i32 %34, 1
  %40 = add nuw nsw i32 %39, 2
  %41 = shl nuw i32 %38, %40
  %42 = and i32 %41, 196608
  %43 = add nuw nsw i32 %34, 1
  %44 = add nuw nsw i32 %43, %33
  %45 = zext nneg i32 %44 to i64
  %46 = getelementptr inbounds nuw i16, ptr %7, i64 %45
  %47 = load i16, ptr %46, align 2, !tbaa !22
  %48 = zext i16 %47 to i32
  %49 = or disjoint i32 %42, %48
  br label %50

50:                                               ; preds = %28, %22
  %.0 = phi i32 [ %27, %22 ], [ %49, %28 ]
  %51 = and i32 %1, 15
  %52 = add nuw nsw i32 %.0, %51
  ret i32 %52
}